Certificate:
    Data:
        Version: 3 (0x2)
        Serial Number: 0 (0x0)
        Signature Algorithm: sha256WithRSAEncryption
        Issuer: C=CN, ST=GD, L=GZ, O=Cloud, OU=Injector, CN=localCA
        Validity
            Not Before: Sep  1 09:41:13 2021 GMT
            Not After : Aug 30 09:41:13 2031 GMT
        Subject: C=CN, ST=GD, O=Cloud, OU=Injector, CN=localhost
        Subject Public Key Info:
            Public Key Algorithm: rsaEncryption
                RSA Public-Key: (2048 bit)
                Modulus:
                    00:b1:94:a6:3b:da:a2:21:ba:29:87:50:68:11:f3:
                    dc:60:30:72:2e:90:0a:53:86:2f:f7:8c:84:dd:0d:
                    06:04:6b:da:49:67:a7:4f:56:e4:8e:83:6c:70:0f:
                    71:02:cc:8d:9f:35:66:e2:69:04:86:e4:d3:fe:c8:
                    e8:6d:4b:74:97:cd:30:40:52:72:67:59:3e:d7:96:
                    f4:f4:64:a0:38:46:4f:56:59:54:be:bd:e2:c3:70:
                    2e:f6:01:5c:ce:e1:e1:27:f5:17:bb:76:20:3a:1d:
                    cf:de:42:36:af:26:55:f6:17:96:59:75:08:6a:3a:
                    3b:5f:32:5c:a0:85:94:fc:9d:d4:40:c4:f5:cc:64:
                    9a:85:96:f8:5f:2f:a3:fa:a3:da:2a:ec:75:22:3e:
                    13:29:e0:22:0f:ef:0e:b3:5b:61:41:96:41:28:c7:
                    93:31:eb:b0:c0:65:51:ef:ab:62:86:27:71:81:4d:
                    a6:23:90:a5:cb:22:95:ce:37:94:9a:da:20:35:87:
                    bf:14:73:bc:e3:67:8d:19:c6:cc:b4:50:70:a5:10:
                    3d:b0:5d:e3:6e:9e:bc:b2:52:95:23:da:b2:12:6a:
                    9e:3f:b9:78:b7:9f:be:8e:00:a8:2e:fa:f9:bc:73:
                    a0:de:9a:f4:7b:2b:06:7a:71:37:77:7c:0a:42:54:
                    9f:33
                Exponent: 65537 (0x10001)
        X509v3 extensions:
            X509v3 Subject Alternative Name: 
                DNS:localhost, DNS:pod-injector, DNS:pod-injector.injector, DNS:pod-injector.injector.svc, DNS:pod-injector.injector.svc.cluster.local, IP Address:127.0.0.1, IP Address:100.98.138.179, IP Address:100.98.137.140
    Signature Algorithm: sha256WithRSAEncryption
         42:40:f2:54:e2:7d:0c:d8:01:33:13:52:c3:5e:82:25:27:bd:
         8b:92:b5:19:0b:b9:79:28:7c:92:00:2d:be:58:3a:fc:f9:61:
         fc:80:5a:8c:64:9f:d9:6f:fd:4e:80:fd:12:dd:fc:cd:27:5c:
         76:f3:8e:29:07:31:14:bd:12:32:30:91:a6:10:b5:6e:e7:30:
         a8:e9:86:85:92:72:b8:49:ba:0c:68:62:c0:8c:59:6b:b8:c9:
         c7:89:68:f5:84:4c:59:fd:d6:6d:5e:8c:5d:de:bc:75:f4:b3:
         ee:61:08:34:7e:ce:07:9d:69:01:75:de:6a:0f:15:df:3f:67:
         d2:55:a5:e1:c0:8e:4f:ac:86:88:f5:4f:8f:1c:e9:41:2d:d0:
         33:be:f7:e0:d6:76:ef:8a:8a:f3:55:ad:c3:43:37:3b:10:7c:
         5e:83:14:d5:6a:c8:be:94:fc:b8:ee:19:7c:df:fe:77:0e:36:
         d7:fe:19:2b:a8:0b:b8:b8:3a:0f:ea:1f:00:ec:a5:03:2c:6b:
         e5:96:a3:4d:ff:e5:49:c6:16:65:d3:51:38:23:11:e8:55:62:
         93:6d:3a:23:83:ec:5d:af:36:02:8a:46:d9:a0:cf:18:00:41:
         b5:bb:20:0a:a3:ff:ed:91:c7:02:8b:41:f0:82:c4:ff:02:2e:
         99:6f:1e:f3
-----BEGIN CERTIFICATE-----
MIIDwDCCAqigAwIBAgIBADANBgkqhkiG9w0BAQsFADBcMQswCQYDVQQGEwJDTjEL
MAkGA1UECAwCR0QxCzAJBgNVBAcMAkdaMQ4wDAYDVQQKDAVDbG91ZDERMA8GA1UE
CwwISW5qZWN0b3IxEDAOBgNVBAMMB2xvY2FsQ0EwHhcNMjEwOTAxMDk0MTEzWhcN
MzEwODMwMDk0MTEzWjBRMQswCQYDVQQGEwJDTjELMAkGA1UECAwCR0QxDjAMBgNV
BAoMBUNsb3VkMREwDwYDVQQLDAhJbmplY3RvcjESMBAGA1UEAwwJbG9jYWxob3N0
MIIBIjANBgkqhkiG9w0BAQEFAAOCAQ8AMIIBCgKCAQEAsZSmO9qiIboph1BoEfPc
YDByLpAKU4Yv94yE3Q0GBGvaSWenT1bkjoNscA9xAsyNnzVm4mkEhuTT/sjobUt0
l80wQFJyZ1k+15b09GSgOEZPVllUvr3iw3Au9gFczuHhJ/UXu3YgOh3P3kI2ryZV
9heWWXUIajo7XzJcoIWU/J3UQMT1zGSahZb4Xy+j+qPaKux1Ij4TKeAiD+8Os1th
QZZBKMeTMeuwwGVR76tihidxgU2mI5ClyyKVzjeUmtogNYe/FHO842eNGcbMtFBw
pRA9sF3jbp68slKVI9qyEmqeP7l4t5++jgCoLvr5vHOg3pr0eysGenE3d3wKQlSf
MwIDAQABo4GXMIGUMIGRBgNVHREEgYkwgYaCCWxvY2FsaG9zdIIMcG9kLWluamVj
dG9yghVwb2QtaW5qZWN0b3IuaW5qZWN0b3KCGXBvZC1pbmplY3Rvci5pbmplY3Rv
ci5zdmOCJ3BvZC1pbmplY3Rvci5pbmplY3Rvci5zdmMuY2x1c3Rlci5sb2NhbIcE
fwAAAYcEZGKKs4cEZGKJjDANBgkqhkiG9w0BAQsFAAOCAQEAQkDyVOJ9DNgBMxNS
w16CJSe9i5K1GQu5eSh8kgAtvlg6/Plh/IBajGSf2W/9ToD9Et38zSdcdvOOKQcx
FL0SMjCRphC1bucwqOmGhZJyuEm6DGhiwIxZa7jJx4lo9YRMWf3WbV6MXd68dfSz
7mEINH7OB51pAXXeag8V3z9n0lWl4cCOT6yGiPVPjxzpQS3QM7734NZ274qK81Wt
w0M3OxB8XoMU1WrIvpT8uO4ZfN/+dw421/4ZK6gLuLg6D+ofAOylAyxr5ZajTf/l
ScYWZdNROCMR6FVik206I4PsXa82AopG2aDPGABBtbsgCqP/7ZHHAotB8ILE/wIu
mW8e8w==
-----END CERTIFICATE-----
